target datalayout = "e-m:e-p270:32:32-p271:32:32-p272:64:64-i64:64-i128:128-f80:128-n8:16:32:64-S128"
target triple = "x86_64-pc-linux-gnu"

%class.QWidget = type { %class.QObject, %class.QPaintDevice, ptr }
%class.QObject = type { ptr, %class.QScopedPointer }
%class.QScopedPointer = type { ptr }
%class.QPaintDevice = type { ptr, i16, ptr }
%class.QFrame = type { %class.QWidget }
%class.MLRenderingParametersFrame.base = type <{ %class.QFrame, i32 }>
%class.MLRenderingDefaultDecoratorParametersFrame = type { %class.MLRenderingParametersFrame.base, ptr, ptr, ptr, ptr, ptr }

@_ZTV42MLRenderingDefaultDecoratorParametersFrame = external unnamed_addr constant { [61 x ptr], [10 x ptr] }, align 8

; Function Attrs: mustprogress nounwind uwtable
define void @_ZN26MLRenderingParametersFrameD2Ev(ptr noundef nonnull align 8 dereferenceable(52) %0) unnamed_addr #4 align 2 {
  %2 = alloca ptr, align 8
  store ptr %0, ptr %2, align 8
  %3 = load ptr, ptr %2, align 8
  call void @_ZN6QFrameD2Ev(ptr noundef nonnull align 8 dereferenceable(48) %3) #3
  ret void
}

; Function Attrs: mustprogress nounwind uwtable
define void @_ZN42MLRenderingDefaultDecoratorParametersFrameD2Ev(ptr noundef nonnull align 8 dereferenceable(96) %0) unnamed_addr #4 align 2 {
  %2 = alloca ptr, align 8
  store ptr %0, ptr %2, align 8
  %3 = load ptr, ptr %2, align 8
  store ptr getelementptr inbounds ({ [61 x ptr], [10 x ptr] }, ptr @_ZTV42MLRenderingDefaultDecoratorParametersFrame, i32 0, i32 0, i32 2), ptr %3, align 8
  %4 = getelementptr inbounds i8, ptr %3, i64 16
  store ptr getelementptr inbounds ({ [61 x ptr], [10 x ptr] }, ptr @_ZTV42MLRenderingDefaultDecoratorParametersFrame, i32 0, i32 1, i32 2), ptr %4, align 8
  %5 = getelementptr inbounds %class.MLRenderingDefaultDecoratorParametersFrame, ptr %3, i32 0, i32 1
  %6 = load ptr, ptr %5, align 8
  %7 = icmp eq ptr %6, null
  br i1 %7, label %12, label %8

8:                                                ; preds = %1
  %9 = load ptr, ptr %6, align 8
  %10 = getelementptr inbounds ptr, ptr %9, i64 4
  %11 = load ptr, ptr %10, align 8
  call void %11(ptr noundef nonnull align 8 dereferenceable(80) %6) #3
  br label %12

12:                                               ; preds = %8, %1
  %13 = getelementptr inbounds %class.MLRenderingDefaultDecoratorParametersFrame, ptr %3, i32 0, i32 2
  %14 = load ptr, ptr %13, align 8
  %15 = icmp eq ptr %14, null
  br i1 %15, label %20, label %16

16:                                               ; preds = %12
  %17 = load ptr, ptr %14, align 8
  %18 = getelementptr inbounds ptr, ptr %17, i64 4
  %19 = load ptr, ptr %18, align 8
  call void %19(ptr noundef nonnull align 8 dereferenceable(80) %14) #3
  br label %20

20:                                               ; preds = %16, %12
  %21 = getelementptr inbounds %class.MLRenderingDefaultDecoratorParametersFrame, ptr %3, i32 0, i32 4
  %22 = load ptr, ptr %21, align 8
  %23 = icmp eq ptr %22, null
  br i1 %23, label %28, label %24

24:                                               ; preds = %20
  %25 = load ptr, ptr %22, align 8
  %26 = getelementptr inbounds ptr, ptr %25, i64 4
  %27 = load ptr, ptr %26, align 8
  call void %27(ptr noundef nonnull align 8 dereferenceable(80) %22) #3
  br label %28

28:                                               ; preds = %24, %20
  %29 = getelementptr inbounds %class.MLRenderingDefaultDecoratorParametersFrame, ptr %3, i32 0, i32 3
  %30 = load ptr, ptr %29, align 8
  %31 = icmp eq ptr %30, null
  br i1 %31, label %36, label %32

32:                                               ; preds = %28
  %33 = load ptr, ptr %30, align 8
  %34 = getelementptr inbounds ptr, ptr %33, i64 4
  %35 = load ptr, ptr %34, align 8
  call void %35(ptr noundef nonnull align 8 dereferenceable(80) %30) #3
  br label %36

36:                                               ; preds = %32, %28
  %37 = getelementptr inbounds %class.MLRenderingDefaultDecoratorParametersFrame, ptr %3, i32 0, i32 5
  %38 = load ptr, ptr %37, align 8
  %39 = icmp eq ptr %38, null
  br i1 %39, label %44, label %40

40:                                               ; preds = %36
  %41 = load ptr, ptr %38, align 8
  %42 = getelementptr inbounds ptr, ptr %41, i64 4
  %43 = load ptr, ptr %42, align 8
  call void %43(ptr noundef nonnull align 8 dereferenceable(80) %38) #3
  br label %44

44:                                               ; preds = %40, %36
  call void @_ZN26MLRenderingParametersFrameD2Ev(ptr noundef nonnull align 8 dereferenceable(52) %3) #3
  ret void
}